target datalayout = "e-m:e-p270:32:32-p271:32:32-p272:64:64-i64:64-i128:128-f80:128-n8:16:32:64-S128"
target triple = "x86_64-unknown-linux-gnu"

%struct.Property = type { ptr, ptr, i64, i8, i64, i8, %union.anon, i32, ptr, i32, ptr }
%union.anon = type { i64 }

@.str = private unnamed_addr constant [34 x i8] c"../qemu/hw/core/qdev-properties.c\00", align 1
@__func__.set_uint64_checkmask = private unnamed_addr constant [21 x i8] c"set_uint64_checkmask\00", align 1
@.str.29 = private unnamed_addr constant [54 x i8] c"Property value for '%s' has bits outside mask '0x%lx'\00", align 1

; Function Attrs: nounwind sspstrong uwtable
define dso_local ptr @object_field_prop_ptr(ptr noundef %obj, ptr noundef %prop) #0 {
entry:
  %obj.addr = alloca ptr, align 8
  %prop.addr = alloca ptr, align 8
  %ptr = alloca ptr, align 8
  store ptr %obj, ptr %obj.addr, align 8
  store ptr %prop, ptr %prop.addr, align 8
  %0 = load ptr, ptr %obj.addr, align 8
  store ptr %0, ptr %ptr, align 8
  %1 = load ptr, ptr %prop.addr, align 8
  %offset = getelementptr inbounds %struct.Property, ptr %1, i32 0, i32 2
  %2 = load i64, ptr %offset, align 8
  %3 = load ptr, ptr %ptr, align 8
  %add.ptr = getelementptr i8, ptr %3, i64 %2
  store ptr %add.ptr, ptr %ptr, align 8
  %4 = load ptr, ptr %ptr, align 8
  ret ptr %4
}

; Function Attrs: nounwind sspstrong uwtable
define internal void @set_uint64_checkmask(ptr noundef %obj, ptr noundef %v, ptr noundef %name, ptr noundef %opaque, ptr noundef %errp) #0 {
entry:
  %obj.addr = alloca ptr, align 8
  %v.addr = alloca ptr, align 8
  %name.addr = alloca ptr, align 8
  %opaque.addr = alloca ptr, align 8
  %errp.addr = alloca ptr, align 8
  %prop = alloca ptr, align 8
  %ptr = alloca ptr, align 8
  store ptr %obj, ptr %obj.addr, align 8
  store ptr %v, ptr %v.addr, align 8
  store ptr %name, ptr %name.addr, align 8
  store ptr %opaque, ptr %opaque.addr, align 8
  store ptr %errp, ptr %errp.addr, align 8
  %0 = load ptr, ptr %opaque.addr, align 8
  store ptr %0, ptr %prop, align 8
  %1 = load ptr, ptr %obj.addr, align 8
  %2 = load ptr, ptr %prop, align 8
  %call = call ptr @object_field_prop_ptr(ptr noundef %1, ptr noundef %2)
  store ptr %call, ptr %ptr, align 8
  %3 = load ptr, ptr %v.addr, align 8
  %4 = load ptr, ptr %name.addr, align 8
  %5 = load ptr, ptr %ptr, align 8
  %6 = load ptr, ptr %errp.addr, align 8
  %call1 = call zeroext i1 @visit_type_uint64(ptr noundef %3, ptr noundef %4, ptr noundef %5, ptr noundef %6)
  %7 = load ptr, ptr %ptr, align 8
  %8 = load i64, ptr %7, align 8
  %9 = load ptr, ptr %prop, align 8
  %bitmask = getelementptr inbounds %struct.Property, ptr %9, i32 0, i32 4
  %10 = load i64, ptr %bitmask, align 8
  %not = xor i64 %10, -1
  %and = and i64 %8, %not
  %tobool = icmp ne i64 %and, 0
  br i1 %tobool, label %if.then, label %if.end

if.then:                                          ; preds = %entry
  %11 = load ptr, ptr %errp.addr, align 8
  %12 = load ptr, ptr %name.addr, align 8
  %13 = load ptr, ptr %prop, align 8
  %bitmask2 = getelementptr inbounds %struct.Property, ptr %13, i32 0, i32 4
  %14 = load i64, ptr %bitmask2, align 8
  call void (ptr, ptr, i32, ptr, ptr, ...) @error_setg_internal(ptr noundef %11, ptr noundef @.str, i32 noundef 442, ptr noundef @__func__.set_uint64_checkmask, ptr noundef @.str.29, ptr noundef %12, i64 noundef %14)
  br label %if.end

if.end:                                           ; preds = %if.then, %entry
  ret void
}