; Function Attrs: nounwind sspstrong uwtable
define internal void @set_uint64_checkmask(ptr noundef %obj, ptr noundef %v, ptr noundef %name, ptr noundef readonly captures(none) %opaque, ptr noundef %errp) #0 {
entry:
  %offset.i = getelementptr inbounds nuw i8, ptr %opaque, i64 16
  %0 = load i64, ptr %offset.i, align 8
  %add.ptr.i = getelementptr i8, ptr %obj, i64 %0
  %call1 = tail call zeroext i1 @visit_type_uint64(ptr noundef %v, ptr noundef %name, ptr noundef %add.ptr.i, ptr noundef %errp) #9
  %1 = load i64, ptr %add.ptr.i, align 8
  %bitmask = getelementptr inbounds nuw i8, ptr %opaque, i64 32
  %2 = load i64, ptr %bitmask, align 8
  %not = xor i64 %2, -1
  %and = and i64 %1, %not
  %tobool.not = icmp eq i64 %and, 0
  br i1 %tobool.not, label %if.end, label %if.then

if.then:                                          ; preds = %entry
  tail call void (ptr, ptr, i32, ptr, ptr, ...) @error_setg_internal(ptr noundef %errp, ptr noundef nonnull @.str, i32 noundef 442, ptr noundef nonnull @__func__.set_uint64_checkmask, ptr noundef nonnull @.str.29, ptr noundef %name, i64 noundef %2) #9
  br label %if.end

if.end:                                           ; preds = %if.then, %entry
  ret void
}